target datalayout = "e-m:e-p270:32:32-p271:32:32-p272:64:64-i64:64-i128:128-f80:128-n8:16:32:64-S128"
target triple = "x86_64-pc-linux-gnu"

%struct.RNNModel = type { i32, ptr, i32, ptr, i32, ptr, i32, ptr, i32, ptr, i32, ptr }
%struct.DenseLayer = type { ptr, ptr, i32, i32, i32 }
%struct.GRULayer = type { ptr, ptr, ptr, i32, i32, i32 }

; Function Attrs: nounwind uwtable
define internal void @rnnoise_model_free(ptr noundef %0) #1 {
  %2 = alloca ptr, align 8
  store ptr %0, ptr %2, align 8, !tbaa !41
  %3 = load ptr, ptr %2, align 8, !tbaa !41
  %4 = icmp ne ptr %3, null
  br i1 %4, label %6, label %5

5:                                                ; preds = %1
  br label %149

6:                                                ; preds = %1
  br label %7

7:                                                ; preds = %6
  %8 = load ptr, ptr %2, align 8, !tbaa !41
  %9 = getelementptr inbounds nuw %struct.RNNModel, ptr %8, i32 0, i32 1
  %10 = load ptr, ptr %9, align 8, !tbaa !89
  %11 = icmp ne ptr %10, null
  br i1 %11, label %12, label %26

12:                                               ; preds = %7
  %13 = load ptr, ptr %2, align 8, !tbaa !41
  %14 = getelementptr inbounds nuw %struct.RNNModel, ptr %13, i32 0, i32 1
  %15 = load ptr, ptr %14, align 8, !tbaa !89
  %16 = getelementptr inbounds nuw %struct.DenseLayer, ptr %15, i32 0, i32 1
  %17 = load ptr, ptr %16, align 8, !tbaa !102
  call void @av_free(ptr noundef %17)
  %18 = load ptr, ptr %2, align 8, !tbaa !41
  %19 = getelementptr inbounds nuw %struct.RNNModel, ptr %18, i32 0, i32 1
  %20 = load ptr, ptr %19, align 8, !tbaa !89
  %21 = getelementptr inbounds nuw %struct.DenseLayer, ptr %20, i32 0, i32 0
  %22 = load ptr, ptr %21, align 8, !tbaa !105
  call void @av_free(ptr noundef %22)
  %23 = load ptr, ptr %2, align 8, !tbaa !41
  %24 = getelementptr inbounds nuw %struct.RNNModel, ptr %23, i32 0, i32 1
  %25 = load ptr, ptr %24, align 8, !tbaa !89
  call void @av_free(ptr noundef %25)
  br label %26

26:                                               ; preds = %12, %7
  br label %27

27:                                               ; preds = %26
  br label %28

28:                                               ; preds = %27
  %29 = load ptr, ptr %2, align 8, !tbaa !41
  %30 = getelementptr inbounds nuw %struct.RNNModel, ptr %29, i32 0, i32 3
  %31 = load ptr, ptr %30, align 8, !tbaa !91
  %32 = icmp ne ptr %31, null
  br i1 %32, label %33, label %52

33:                                               ; preds = %28
  %34 = load ptr, ptr %2, align 8, !tbaa !41
  %35 = getelementptr inbounds nuw %struct.RNNModel, ptr %34, i32 0, i32 3
  %36 = load ptr, ptr %35, align 8, !tbaa !91
  %37 = getelementptr inbounds nuw %struct.GRULayer, ptr %36, i32 0, i32 1
  %38 = load ptr, ptr %37, align 8, !tbaa !113
  call void @av_free(ptr noundef %38)
  %39 = load ptr, ptr %2, align 8, !tbaa !41
  %40 = getelementptr inbounds nuw %struct.RNNModel, ptr %39, i32 0, i32 3
  %41 = load ptr, ptr %40, align 8, !tbaa !91
  %42 = getelementptr inbounds nuw %struct.GRULayer, ptr %41, i32 0, i32 2
  %43 = load ptr, ptr %42, align 8, !tbaa !118
  call void @av_free(ptr noundef %43)
  %44 = load ptr, ptr %2, align 8, !tbaa !41
  %45 = getelementptr inbounds nuw %struct.RNNModel, ptr %44, i32 0, i32 3
  %46 = load ptr, ptr %45, align 8, !tbaa !91
  %47 = getelementptr inbounds nuw %struct.GRULayer, ptr %46, i32 0, i32 0
  %48 = load ptr, ptr %47, align 8, !tbaa !123
  call void @av_free(ptr noundef %48)
  %49 = load ptr, ptr %2, align 8, !tbaa !41
  %50 = getelementptr inbounds nuw %struct.RNNModel, ptr %49, i32 0, i32 3
  %51 = load ptr, ptr %50, align 8, !tbaa !91
  call void @av_free(ptr noundef %51)
  br label %52

52:                                               ; preds = %33, %28
  br label %53

53:                                               ; preds = %52
  br label %54

54:                                               ; preds = %53
  %55 = load ptr, ptr %2, align 8, !tbaa !41
  %56 = getelementptr inbounds nuw %struct.RNNModel, ptr %55, i32 0, i32 5
  %57 = load ptr, ptr %56, align 8, !tbaa !92
  %58 = icmp ne ptr %57, null
  br i1 %58, label %59, label %78

59:                                               ; preds = %54
  %60 = load ptr, ptr %2, align 8, !tbaa !41
  %61 = getelementptr inbounds nuw %struct.RNNModel, ptr %60, i32 0, i32 5
  %62 = load ptr, ptr %61, align 8, !tbaa !92
  %63 = getelementptr inbounds nuw %struct.GRULayer, ptr %62, i32 0, i32 1
  %64 = load ptr, ptr %63, align 8, !tbaa !113
  call void @av_free(ptr noundef %64)
  %65 = load ptr, ptr %2, align 8, !tbaa !41
  %66 = getelementptr inbounds nuw %struct.RNNModel, ptr %65, i32 0, i32 5
  %67 = load ptr, ptr %66, align 8, !tbaa !92
  %68 = getelementptr inbounds nuw %struct.GRULayer, ptr %67, i32 0, i32 2
  %69 = load ptr, ptr %68, align 8, !tbaa !118
  call void @av_free(ptr noundef %69)
  %70 = load ptr, ptr %2, align 8, !tbaa !41
  %71 = getelementptr inbounds nuw %struct.RNNModel, ptr %70, i32 0, i32 5
  %72 = load ptr, ptr %71, align 8, !tbaa !92
  %73 = getelementptr inbounds nuw %struct.GRULayer, ptr %72, i32 0, i32 0
  %74 = load ptr, ptr %73, align 8, !tbaa !123
  call void @av_free(ptr noundef %74)
  %75 = load ptr, ptr %2, align 8, !tbaa !41
  %76 = getelementptr inbounds nuw %struct.RNNModel, ptr %75, i32 0, i32 5
  %77 = load ptr, ptr %76, align 8, !tbaa !92
  call void @av_free(ptr noundef %77)
  br label %78

78:                                               ; preds = %59, %54
  br label %79

79:                                               ; preds = %78
  br label %80

80:                                               ; preds = %79
  %81 = load ptr, ptr %2, align 8, !tbaa !41
  %82 = getelementptr inbounds nuw %struct.RNNModel, ptr %81, i32 0, i32 7
  %83 = load ptr, ptr %82, align 8, !tbaa !93
  %84 = icmp ne ptr %83, null
  br i1 %84, label %85, label %104

85:                                               ; preds = %80
  %86 = load ptr, ptr %2, align 8, !tbaa !41
  %87 = getelementptr inbounds nuw %struct.RNNModel, ptr %86, i32 0, i32 7
  %88 = load ptr, ptr %87, align 8, !tbaa !93
  %89 = getelementptr inbounds nuw %struct.GRULayer, ptr %88, i32 0, i32 1
  %90 = load ptr, ptr %89, align 8, !tbaa !113
  call void @av_free(ptr noundef %90)
  %91 = load ptr, ptr %2, align 8, !tbaa !41
  %92 = getelementptr inbounds nuw %struct.RNNModel, ptr %91, i32 0, i32 7
  %93 = load ptr, ptr %92, align 8, !tbaa !93
  %94 = getelementptr inbounds nuw %struct.GRULayer, ptr %93, i32 0, i32 2
  %95 = load ptr, ptr %94, align 8, !tbaa !118
  call void @av_free(ptr noundef %95)
  %96 = load ptr, ptr %2, align 8, !tbaa !41
  %97 = getelementptr inbounds nuw %struct.RNNModel, ptr %96, i32 0, i32 7
  %98 = load ptr, ptr %97, align 8, !tbaa !93
  %99 = getelementptr inbounds nuw %struct.GRULayer, ptr %98, i32 0, i32 0
  %100 = load ptr, ptr %99, align 8, !tbaa !123
  call void @av_free(ptr noundef %100)
  %101 = load ptr, ptr %2, align 8, !tbaa !41
  %102 = getelementptr inbounds nuw %struct.RNNModel, ptr %101, i32 0, i32 7
  %103 = load ptr, ptr %102, align 8, !tbaa !93
  call void @av_free(ptr noundef %103)
  br label %104

104:                                              ; preds = %85, %80
  br label %105

105:                                              ; preds = %104
  br label %106

106:                                              ; preds = %105
  %107 = load ptr, ptr %2, align 8, !tbaa !41
  %108 = getelementptr inbounds nuw %struct.RNNModel, ptr %107, i32 0, i32 9
  %109 = load ptr, ptr %108, align 8, !tbaa !94
  %110 = icmp ne ptr %109, null
  br i1 %110, label %111, label %125

111:                                              ; preds = %106
  %112 = load ptr, ptr %2, align 8, !tbaa !41
  %113 = getelementptr inbounds nuw %struct.RNNModel, ptr %112, i32 0, i32 9
  %114 = load ptr, ptr %113, align 8, !tbaa !94
  %115 = getelementptr inbounds nuw %struct.DenseLayer, ptr %114, i32 0, i32 1
  %116 = load ptr, ptr %115, align 8, !tbaa !102
  call void @av_free(ptr noundef %116)
  %117 = load ptr, ptr %2, align 8, !tbaa !41
  %118 = getelementptr inbounds nuw %struct.RNNModel, ptr %117, i32 0, i32 9
  %119 = load ptr, ptr %118, align 8, !tbaa !94
  %120 = getelementptr inbounds nuw %struct.DenseLayer, ptr %119, i32 0, i32 0
  %121 = load ptr, ptr %120, align 8, !tbaa !105
  call void @av_free(ptr noundef %121)
  %122 = load ptr, ptr %2, align 8, !tbaa !41
  %123 = getelementptr inbounds nuw %struct.RNNModel, ptr %122, i32 0, i32 9
  %124 = load ptr, ptr %123, align 8, !tbaa !94
  call void @av_free(ptr noundef %124)
  br label %125

125:                                              ; preds = %111, %106
  br label %126

126:                                              ; preds = %125
  br label %127

127:                                              ; preds = %126
  %128 = load ptr, ptr %2, align 8, !tbaa !41
  %129 = getelementptr inbounds nuw %struct.RNNModel, ptr %128, i32 0, i32 11
  %130 = load ptr, ptr %129, align 8, !tbaa !95
  %131 = icmp ne ptr %130, null
  br i1 %131, label %132, label %146

132:                                              ; preds = %127
  %133 = load ptr, ptr %2, align 8, !tbaa !41
  %134 = getelementptr inbounds nuw %struct.RNNModel, ptr %133, i32 0, i32 11
  %135 = load ptr, ptr %134, align 8, !tbaa !95
  %136 = getelementptr inbounds nuw %struct.DenseLayer, ptr %135, i32 0, i32 1
  %137 = load ptr, ptr %136, align 8, !tbaa !102
  call void @av_free(ptr noundef %137)
  %138 = load ptr, ptr %2, align 8, !tbaa !41
  %139 = getelementptr inbounds nuw %struct.RNNModel, ptr %138, i32 0, i32 11
  %140 = load ptr, ptr %139, align 8, !tbaa !95
  %141 = getelementptr inbounds nuw %struct.DenseLayer, ptr %140, i32 0, i32 0
  %142 = load ptr, ptr %141, align 8, !tbaa !105
  call void @av_free(ptr noundef %142)
  %143 = load ptr, ptr %2, align 8, !tbaa !41
  %144 = getelementptr inbounds nuw %struct.RNNModel, ptr %143, i32 0, i32 11
  %145 = load ptr, ptr %144, align 8, !tbaa !95
  call void @av_free(ptr noundef %145)
  br label %146

146:                                              ; preds = %132, %127
  br label %147

147:                                              ; preds = %146
  %148 = load ptr, ptr %2, align 8, !tbaa !41
  call void @av_free(ptr noundef %148)
  br label %149

149:                                              ; preds = %147, %5
  ret void
}