; Function Attrs: nounwind uwtable
define internal fastcc void @rnnoise_model_free(ptr noundef %0) unnamed_addr #1 {
  %.not = icmp eq ptr %0, null
  br i1 %.not, label %66, label %2

2:                                                ; preds = %1
  %3 = getelementptr inbounds nuw i8, ptr %0, i64 8
  %4 = load ptr, ptr %3, align 8, !tbaa !81
  %.not35 = icmp eq ptr %4, null
  br i1 %.not35, label %11, label %5

5:                                                ; preds = %2
  %6 = getelementptr inbounds nuw i8, ptr %4, i64 8
  %7 = load ptr, ptr %6, align 8, !tbaa !92
  tail call void @av_free(ptr noundef %7) #11
  %8 = load ptr, ptr %3, align 8, !tbaa !81
  %9 = load ptr, ptr %8, align 8, !tbaa !94
  tail call void @av_free(ptr noundef %9) #11
  %10 = load ptr, ptr %3, align 8, !tbaa !81
  tail call void @av_free(ptr noundef %10) #11
  br label %11

11:                                               ; preds = %5, %2
  %12 = getelementptr inbounds nuw i8, ptr %0, i64 24
  %13 = load ptr, ptr %12, align 8, !tbaa !82
  %.not36 = icmp eq ptr %13, null
  br i1 %.not36, label %23, label %14

14:                                               ; preds = %11
  %15 = getelementptr inbounds nuw i8, ptr %13, i64 8
  %16 = load ptr, ptr %15, align 8, !tbaa !100
  tail call void @av_free(ptr noundef %16) #11
  %17 = load ptr, ptr %12, align 8, !tbaa !82
  %18 = getelementptr inbounds nuw i8, ptr %17, i64 16
  %19 = load ptr, ptr %18, align 8, !tbaa !105
  tail call void @av_free(ptr noundef %19) #11
  %20 = load ptr, ptr %12, align 8, !tbaa !82
  %21 = load ptr, ptr %20, align 8, !tbaa !109
  tail call void @av_free(ptr noundef %21) #11
  %22 = load ptr, ptr %12, align 8, !tbaa !82
  tail call void @av_free(ptr noundef %22) #11
  br label %23

23:                                               ; preds = %14, %11
  %24 = getelementptr inbounds nuw i8, ptr %0, i64 40
  %25 = load ptr, ptr %24, align 8, !tbaa !83
  %.not37 = icmp eq ptr %25, null
  br i1 %.not37, label %35, label %26

26:                                               ; preds = %23
  %27 = getelementptr inbounds nuw i8, ptr %25, i64 8
  %28 = load ptr, ptr %27, align 8, !tbaa !100
  tail call void @av_free(ptr noundef %28) #11
  %29 = load ptr, ptr %24, align 8, !tbaa !83
  %30 = getelementptr inbounds nuw i8, ptr %29, i64 16
  %31 = load ptr, ptr %30, align 8, !tbaa !105
  tail call void @av_free(ptr noundef %31) #11
  %32 = load ptr, ptr %24, align 8, !tbaa !83
  %33 = load ptr, ptr %32, align 8, !tbaa !109
  tail call void @av_free(ptr noundef %33) #11
  %34 = load ptr, ptr %24, align 8, !tbaa !83
  tail call void @av_free(ptr noundef %34) #11
  br label %35

35:                                               ; preds = %26, %23
  %36 = getelementptr inbounds nuw i8, ptr %0, i64 56
  %37 = load ptr, ptr %36, align 8, !tbaa !84
  %.not38 = icmp eq ptr %37, null
  br i1 %.not38, label %47, label %38

38:                                               ; preds = %35
  %39 = getelementptr inbounds nuw i8, ptr %37, i64 8
  %40 = load ptr, ptr %39, align 8, !tbaa !100
  tail call void @av_free(ptr noundef %40) #11
  %41 = load ptr, ptr %36, align 8, !tbaa !84
  %42 = getelementptr inbounds nuw i8, ptr %41, i64 16
  %43 = load ptr, ptr %42, align 8, !tbaa !105
  tail call void @av_free(ptr noundef %43) #11
  %44 = load ptr, ptr %36, align 8, !tbaa !84
  %45 = load ptr, ptr %44, align 8, !tbaa !109
  tail call void @av_free(ptr noundef %45) #11
  %46 = load ptr, ptr %36, align 8, !tbaa !84
  tail call void @av_free(ptr noundef %46) #11
  br label %47

47:                                               ; preds = %38, %35
  %48 = getelementptr inbounds nuw i8, ptr %0, i64 72
  %49 = load ptr, ptr %48, align 8, !tbaa !85
  %.not39 = icmp eq ptr %49, null
  br i1 %.not39, label %56, label %50

50:                                               ; preds = %47
  %51 = getelementptr inbounds nuw i8, ptr %49, i64 8
  %52 = load ptr, ptr %51, align 8, !tbaa !92
  tail call void @av_free(ptr noundef %52) #11
  %53 = load ptr, ptr %48, align 8, !tbaa !85
  %54 = load ptr, ptr %53, align 8, !tbaa !94
  tail call void @av_free(ptr noundef %54) #11
  %55 = load ptr, ptr %48, align 8, !tbaa !85
  tail call void @av_free(ptr noundef %55) #11
  br label %56

56:                                               ; preds = %50, %47
  %57 = getelementptr inbounds nuw i8, ptr %0, i64 88
  %58 = load ptr, ptr %57, align 8, !tbaa !86
  %.not40 = icmp eq ptr %58, null
  br i1 %.not40, label %65, label %59

59:                                               ; preds = %56
  %60 = getelementptr inbounds nuw i8, ptr %58, i64 8
  %61 = load ptr, ptr %60, align 8, !tbaa !92
  tail call void @av_free(ptr noundef %61) #11
  %62 = load ptr, ptr %57, align 8, !tbaa !86
  %63 = load ptr, ptr %62, align 8, !tbaa !94
  tail call void @av_free(ptr noundef %63) #11
  %64 = load ptr, ptr %57, align 8, !tbaa !86
  tail call void @av_free(ptr noundef %64) #11
  br label %65

65:                                               ; preds = %56, %59
  tail call void @av_free(ptr noundef nonnull %0) #11
  br label %66

66:                                               ; preds = %1, %65
  ret void
}